; Function Attrs: mustprogress uwtable
define hidden void @_ZN3sat14cut_simplifier7add_andENS_7literalEjPKS1_(ptr noundef nonnull align 8 dereferenceable(600) %this, i32 %head.coerce, i32 noundef %sz, ptr noundef %lits) local_unnamed_addr #3 align 2 {
entry:
  %m_aig_cuts = getelementptr inbounds i8, ptr %this, i64 72
  tail call void @_ZN3sat8aig_cuts8add_nodeENS_7literalENS_7bool_opEjPKS1_(ptr noundef nonnull align 8 dereferenceable(480) %m_aig_cuts, i32 %head.coerce, i32 noundef 1, i32 noundef %sz, ptr noundef %lits)
  %cmp6.not = icmp eq i32 %sz, 0
  br i1 %cmp6.not, label %for.end, label %for.body.preheader

for.body.preheader:                               ; preds = %entry
  %wide.trip.count = zext i32 %sz to i64
  br label %for.body

for.cond:                                         ; preds = %for.body
  %indvars.iv.next = add nuw nsw i64 %indvars.iv, 1
  %exitcond.not = icmp eq i64 %indvars.iv.next, %wide.trip.count
  br i1 %exitcond.not, label %for.end, label %for.body, !llvm.loop !7

for.body:                                         ; preds = %for.body.preheader, %for.cond
  %indvars.iv = phi i64 [ 0, %for.body.preheader ], [ %indvars.iv.next, %for.cond ]
  %arrayidx = getelementptr inbounds %"class.sat::literal", ptr %lits, i64 %indvars.iv
  %0 = load i32, ptr %arrayidx, align 4
  %cmp4.not.unshifted = xor i32 %0, %head.coerce
  %cmp4.not = icmp ult i32 %cmp4.not.unshifted, 2
  br i1 %cmp4.not, label %if.then, label %for.cond

if.then:                                          ; preds = %for.body
  tail call void @_Z26notify_assertion_violationPKciS0_(ptr noundef nonnull @.str.5, i32 noundef 122, ptr noundef nonnull @.str.6)
  tail call void @exit(i32 noundef 114) #21
  unreachable

for.end:                                          ; preds = %for.cond, %entry
  %m_num_ands = getelementptr inbounds i8, ptr %this, i64 24
  %1 = load i32, ptr %m_num_ands, align 8
  %inc5 = add i32 %1, 1
  store i32 %inc5, ptr %m_num_ands, align 8
  ret void
}